target datalayout = "e-m:e-p270:32:32-p271:32:32-p272:64:64-i64:64-i128:128-f80:128-n8:16:32:64-S128"
target triple = "x86_64-pc-linux-gnu"

%struct.AVFilterPad = type { ptr, i32, i32, %union.anon, ptr, ptr, ptr }
%union.anon = type { ptr }
%union.anon.0 = type { ptr }
%struct.AVFilterLink = type { ptr, ptr, ptr, ptr, i32, i32, i32, i32, %struct.AVRational, i32, i32, i32, %struct.AVChannelLayout, %struct.AVRational, ptr, i32, %struct.AVFilterFormatsConfig, %struct.AVFilterFormatsConfig }
%struct.AVChannelLayout = type { i32, i32, %union.anon.1, ptr }
%union.anon.1 = type { i64 }
%struct.AVRational = type { i32, i32 }
%struct.AVFilterFormatsConfig = type { ptr, ptr, ptr, ptr, ptr }
%struct.AVFilterContext = type { ptr, ptr, ptr, ptr, ptr, i32, ptr, ptr, i32, ptr, ptr, i32, i32, ptr, ptr, ptr, ptr, i32, ptr, i32, i32 }
%struct.AVFrame = type { [8 x ptr], [8 x i32], ptr, i32, i32, i32, i32, i32, %struct.AVRational, i64, i64, %struct.AVRational, i32, ptr, i32, i32, [8 x ptr], ptr, i32, ptr, i32, i32, i32, i32, i32, i32, i32, i64, ptr, i32, ptr, ptr, i64, i64, i64, i64, ptr, %struct.AVChannelLayout, i64 }

@.str = private unnamed_addr constant [6 x i8] c"acopy\00", align 1
@.str.1 = private unnamed_addr constant [46 x i8] c"Copy the input audio unchanged to the output.\00", align 1
@acopy_inputs = internal constant [1 x %struct.AVFilterPad] [%struct.AVFilterPad { ptr @.str.2, i32 1, i32 0, %union.anon zeroinitializer, ptr @filter_frame, ptr null, ptr null }], align 16
@ff_audio_default_filterpad = external constant [1 x %struct.AVFilterPad], align 16
@ff_af_acopy = constant { { ptr, ptr, ptr, ptr, ptr, i32, [4 x i8] }, i8, i8, i8, [5 x i8], ptr, ptr, ptr, %union.anon.0, i32, i32, ptr, ptr } { { ptr, ptr, ptr, ptr, ptr, i32, [4 x i8] } { ptr @.str, ptr @.str.1, ptr @acopy_inputs, ptr @ff_audio_default_filterpad, ptr null, i32 8, [4 x i8] zeroinitializer }, i8 1, i8 1, i8 0, [5 x i8] zeroinitializer, ptr null, ptr null, ptr null, %union.anon.0 zeroinitializer, i32 0, i32 0, ptr null, ptr null }, align 8
@.str.2 = private unnamed_addr constant [8 x i8] c"default\00", align 1

; Function Attrs: nounwind uwtable
define internal i32 @filter_frame(ptr noundef %0, ptr noundef %1) #0 {
  %3 = alloca i32, align 4
  %4 = alloca ptr, align 8
  %5 = alloca ptr, align 8
  %6 = alloca ptr, align 8
  %7 = alloca ptr, align 8
  %8 = alloca i32, align 4
  %9 = alloca i32, align 4
  store ptr %0, ptr %4, align 8, !tbaa !4
  store ptr %1, ptr %5, align 8, !tbaa !9
  call void @llvm.lifetime.start.p0(i64 8, ptr %6) #3
  %10 = load ptr, ptr %4, align 8, !tbaa !4
  %11 = getelementptr inbounds nuw %struct.AVFilterLink, ptr %10, i32 0, i32 2
  %12 = load ptr, ptr %11, align 8, !tbaa !11
  %13 = getelementptr inbounds nuw %struct.AVFilterContext, ptr %12, i32 0, i32 7
  %14 = load ptr, ptr %13, align 8, !tbaa !23
  %15 = getelementptr inbounds ptr, ptr %14, i64 0
  %16 = load ptr, ptr %15, align 8, !tbaa !4
  store ptr %16, ptr %6, align 8, !tbaa !4
  call void @llvm.lifetime.start.p0(i64 8, ptr %7) #3
  %17 = load ptr, ptr %6, align 8, !tbaa !4
  %18 = load ptr, ptr %5, align 8, !tbaa !9
  %19 = getelementptr inbounds nuw %struct.AVFrame, ptr %18, i32 0, i32 5
  %20 = load i32, ptr %19, align 8, !tbaa !33
  %21 = call ptr @ff_get_audio_buffer(ptr noundef %17, i32 noundef %20)
  store ptr %21, ptr %7, align 8, !tbaa !9
  call void @llvm.lifetime.start.p0(i64 4, ptr %8) #3
  %22 = load ptr, ptr %7, align 8, !tbaa !9
  %23 = icmp ne ptr %22, null
  br i1 %23, label %25, label %24

24:                                               ; preds = %2
  store i32 -12, ptr %8, align 4, !tbaa !39
  br label %43

25:                                               ; preds = %2
  %26 = load ptr, ptr %7, align 8, !tbaa !9
  %27 = load ptr, ptr %5, align 8, !tbaa !9
  %28 = call i32 @av_frame_copy_props(ptr noundef %26, ptr noundef %27)
  store i32 %28, ptr %8, align 4, !tbaa !39
  %29 = load i32, ptr %8, align 4, !tbaa !39
  %30 = icmp slt i32 %29, 0
  br i1 %30, label %31, label %32

31:                                               ; preds = %25
  br label %43

32:                                               ; preds = %25
  %33 = load ptr, ptr %7, align 8, !tbaa !9
  %34 = load ptr, ptr %5, align 8, !tbaa !9
  %35 = call i32 @av_frame_copy(ptr noundef %33, ptr noundef %34)
  store i32 %35, ptr %8, align 4, !tbaa !39
  %36 = load i32, ptr %8, align 4, !tbaa !39
  %37 = icmp slt i32 %36, 0
  br i1 %37, label %38, label %39

38:                                               ; preds = %32
  br label %43

39:                                               ; preds = %32
  call void @av_frame_free(ptr noundef %5)
  %40 = load ptr, ptr %6, align 8, !tbaa !4
  %41 = load ptr, ptr %7, align 8, !tbaa !9
  %42 = call i32 @ff_filter_frame(ptr noundef %40, ptr noundef %41)
  store i32 %42, ptr %3, align 4
  store i32 1, ptr %9, align 4
  br label %45

43:                                               ; preds = %38, %31, %24
  call void @av_frame_free(ptr noundef %5)
  call void @av_frame_free(ptr noundef %7)
  %44 = load i32, ptr %8, align 4, !tbaa !39
  store i32 %44, ptr %3, align 4
  store i32 1, ptr %9, align 4
  br label %45

45:                                               ; preds = %43, %39
  call void @llvm.lifetime.end.p0(i64 4, ptr %8) #3
  call void @llvm.lifetime.end.p0(i64 8, ptr %7) #3
  call void @llvm.lifetime.end.p0(i64 8, ptr %6) #3
  %46 = load i32, ptr %3, align 4
  ret i32 %46
}

; Function Attrs: nocallback nofree nosync nounwind willreturn memory(argmem: readwrite)
declare void @llvm.lifetime.start.p0(i64 immarg, ptr captures(none)) #1

declare ptr @ff_get_audio_buffer(ptr noundef, i32 noundef) #2

declare i32 @av_frame_copy_props(ptr noundef, ptr noundef) #2

declare i32 @av_frame_copy(ptr noundef, ptr noundef) #2

declare void @av_frame_free(ptr noundef) #2

declare i32 @ff_filter_frame(ptr noundef, ptr noundef) #2

; Function Attrs: nocallback nofree nosync nounwind willreturn memory(argmem: readwrite)
declare void @llvm.lifetime.end.p0(i64 immarg, ptr captures(none)) #1


!llvm.module.flags = !{!0, !1, !2, !3}

!0 = !{i32 1, !"wchar_size", i32 4}
!1 = !{i32 8, !"PIC Level", i32 2}
!2 = !{i32 7, !"uwtable", i32 2}
!3 = !{i32 1, !"override-stack-alignment", i32 16}
!4 = !{!5, !5, i64 0}
!5 = !{!"p1 _ZTS12AVFilterLink", !6, i64 0}
!6 = !{!"any pointer", !7, i64 0}
!7 = !{!"omnipotent char", !8, i64 0}
!8 = !{!"Simple C/C++ TBAA"}
!9 = !{!10, !10, i64 0}
!10 = !{!"p1 _ZTS7AVFrame", !6, i64 0}
!11 = !{!12, !13, i64 16}
!12 = !{!"AVFilterLink", !13, i64 0, !14, i64 8, !13, i64 16, !14, i64 24, !15, i64 32, !15, i64 36, !15, i64 40, !15, i64 44, !16, i64 48, !15, i64 56, !15, i64 60, !15, i64 64, !17, i64 72, !16, i64 96, !18, i64 104, !15, i64 112, !20, i64 120, !20, i64 160}
!13 = !{!"p1 _ZTS15AVFilterContext", !6, i64 0}
!14 = !{!"p1 _ZTS11AVFilterPad", !6, i64 0}
!15 = !{!"int", !7, i64 0}
!16 = !{!"AVRational", !15, i64 0, !15, i64 4}
!17 = !{!"AVChannelLayout", !15, i64 0, !15, i64 4, !7, i64 8, !6, i64 16}
!18 = !{!"p2 _ZTS15AVFrameSideData", !19, i64 0}
!19 = !{!"any p2 pointer", !6, i64 0}
!20 = !{!"AVFilterFormatsConfig", !21, i64 0, !21, i64 8, !22, i64 16, !21, i64 24, !21, i64 32}
!21 = !{!"p1 _ZTS15AVFilterFormats", !6, i64 0}
!22 = !{!"p1 _ZTS22AVFilterChannelLayouts", !6, i64 0}
!23 = !{!24, !28, i64 56}
!24 = !{!"AVFilterContext", !25, i64 0, !26, i64 8, !27, i64 16, !14, i64 24, !28, i64 32, !15, i64 40, !14, i64 48, !28, i64 56, !15, i64 64, !6, i64 72, !29, i64 80, !15, i64 88, !15, i64 92, !30, i64 96, !27, i64 104, !6, i64 112, !31, i64 120, !15, i64 128, !32, i64 136, !15, i64 144, !15, i64 148}
!25 = !{!"p1 _ZTS7AVClass", !6, i64 0}
!26 = !{!"p1 _ZTS8AVFilter", !6, i64 0}
!27 = !{!"p1 omnipotent char", !6, i64 0}
!28 = !{!"p2 _ZTS12AVFilterLink", !19, i64 0}
!29 = !{!"p1 _ZTS13AVFilterGraph", !6, i64 0}
!30 = !{!"p1 _ZTS15AVFilterCommand", !6, i64 0}
!31 = !{!"p1 double", !6, i64 0}
!32 = !{!"p1 _ZTS11AVBufferRef", !6, i64 0}
!33 = !{!34, !15, i64 112}
!34 = !{!"AVFrame", !7, i64 0, !7, i64 64, !35, i64 96, !15, i64 104, !15, i64 108, !15, i64 112, !15, i64 116, !15, i64 120, !16, i64 124, !36, i64 136, !36, i64 144, !16, i64 152, !15, i64 160, !6, i64 168, !15, i64 176, !15, i64 180, !7, i64 184, !37, i64 248, !15, i64 256, !18, i64 264, !15, i64 272, !15, i64 276, !15, i64 280, !15, i64 284, !15, i64 288, !15, i64 292, !15, i64 296, !36, i64 304, !38, i64 312, !15, i64 320, !32, i64 328, !32, i64 336, !36, i64 344, !36, i64 352, !36, i64 360, !36, i64 368, !6, i64 376, !17, i64 384, !36, i64 408}
!35 = !{!"p2 omnipotent char", !19, i64 0}
!36 = !{!"long", !7, i64 0}
!37 = !{!"p2 _ZTS11AVBufferRef", !19, i64 0}
!38 = !{!"p1 _ZTS12AVDictionary", !6, i64 0}
!39 = !{!15, !15, i64 0}
